target datalayout = "e-m:e-p270:32:32-p271:32:32-p272:64:64-i64:64-i128:128-f80:128-n8:16:32:64-S128"
target triple = "x86_64-pc-linux-gnu"

%struct.anon = type { i64, double, double }

; Function Attrs: nounwind uwtable
define dso_local i32 @heatres(double noundef %0, ptr noundef %1, ptr noundef %2, ptr noundef %3, ptr noundef %4) #0 {
  %6 = alloca double, align 8
  %7 = alloca ptr, align 8
  %8 = alloca ptr, align 8
  %9 = alloca ptr, align 8
  %10 = alloca ptr, align 8
  %11 = alloca i64, align 8
  %12 = alloca i64, align 8
  %13 = alloca i64, align 8
  %14 = alloca i64, align 8
  %15 = alloca i64, align 8
  %16 = alloca ptr, align 8
  %17 = alloca ptr, align 8
  %18 = alloca ptr, align 8
  %19 = alloca double, align 8
  %20 = alloca ptr, align 8
  store double %0, ptr %6, align 8, !tbaa !24
  store ptr %1, ptr %7, align 8, !tbaa !8
  store ptr %2, ptr %8, align 8, !tbaa !8
  store ptr %3, ptr %9, align 8, !tbaa !8
  store ptr %4, ptr %10, align 8, !tbaa !4
  call void @llvm.lifetime.start.p0(i64 8, ptr %11) #6
  call void @llvm.lifetime.start.p0(i64 8, ptr %12) #6
  call void @llvm.lifetime.start.p0(i64 8, ptr %13) #6
  call void @llvm.lifetime.start.p0(i64 8, ptr %14) #6
  call void @llvm.lifetime.start.p0(i64 8, ptr %15) #6
  call void @llvm.lifetime.start.p0(i64 8, ptr %16) #6
  call void @llvm.lifetime.start.p0(i64 8, ptr %17) #6
  call void @llvm.lifetime.start.p0(i64 8, ptr %18) #6
  call void @llvm.lifetime.start.p0(i64 8, ptr %19) #6
  call void @llvm.lifetime.start.p0(i64 8, ptr %20) #6
  %21 = load ptr, ptr %7, align 8, !tbaa !8
  %22 = call ptr @N_VGetArrayPointer(ptr noundef %21)
  store ptr %22, ptr %16, align 8, !tbaa !32
  %23 = load ptr, ptr %8, align 8, !tbaa !8
  %24 = call ptr @N_VGetArrayPointer(ptr noundef %23)
  store ptr %24, ptr %17, align 8, !tbaa !32
  %25 = load ptr, ptr %9, align 8, !tbaa !8
  %26 = call ptr @N_VGetArrayPointer(ptr noundef %25)
  store ptr %26, ptr %18, align 8, !tbaa !32
  %27 = load ptr, ptr %10, align 8, !tbaa !4
  store ptr %27, ptr %20, align 8, !tbaa !4
  %28 = load ptr, ptr %20, align 8, !tbaa !4
  %29 = getelementptr inbounds nuw %struct.anon, ptr %28, i32 0, i32 0
  %30 = load i64, ptr %29, align 8, !tbaa !18
  store i64 %30, ptr %11, align 8, !tbaa !25
  %31 = load ptr, ptr %20, align 8, !tbaa !4
  %32 = getelementptr inbounds nuw %struct.anon, ptr %31, i32 0, i32 2
  %33 = load double, ptr %32, align 8, !tbaa !23
  store double %33, ptr %19, align 8, !tbaa !24
  %34 = load ptr, ptr %7, align 8, !tbaa !8
  %35 = load ptr, ptr %9, align 8, !tbaa !8
  call void @N_VScale(double noundef 1.000000e+00, ptr noundef %34, ptr noundef %35)
  store i64 1, ptr %13, align 8, !tbaa !25
  br label %36

36:                                               ; preds = %98, %5
  %37 = load i64, ptr %13, align 8, !tbaa !25
  %38 = load i64, ptr %11, align 8, !tbaa !25
  %39 = sub nsw i64 %38, 1
  %40 = icmp slt i64 %37, %39
  br i1 %40, label %41, label %101

41:                                               ; preds = %36
  %42 = load i64, ptr %11, align 8, !tbaa !25
  %43 = load i64, ptr %13, align 8, !tbaa !25
  %44 = mul nsw i64 %42, %43
  store i64 %44, ptr %14, align 8, !tbaa !25
  store i64 1, ptr %12, align 8, !tbaa !25
  br label %45

45:                                               ; preds = %94, %41
  %46 = load i64, ptr %12, align 8, !tbaa !25
  %47 = load i64, ptr %11, align 8, !tbaa !25
  %48 = sub nsw i64 %47, 1
  %49 = icmp slt i64 %46, %48
  br i1 %49, label %50, label %97

50:                                               ; preds = %45
  %51 = load i64, ptr %14, align 8, !tbaa !25
  %52 = load i64, ptr %12, align 8, !tbaa !25
  %53 = add nsw i64 %51, %52
  store i64 %53, ptr %15, align 8, !tbaa !25
  %54 = load ptr, ptr %17, align 8, !tbaa !32
  %55 = load i64, ptr %15, align 8, !tbaa !25
  %56 = getelementptr inbounds double, ptr %54, i64 %55
  %57 = load double, ptr %56, align 8, !tbaa !24
  %58 = load double, ptr %19, align 8, !tbaa !24
  %59 = load ptr, ptr %16, align 8, !tbaa !32
  %60 = load i64, ptr %15, align 8, !tbaa !25
  %61 = sub nsw i64 %60, 1
  %62 = getelementptr inbounds double, ptr %59, i64 %61
  %63 = load double, ptr %62, align 8, !tbaa !24
  %64 = load ptr, ptr %16, align 8, !tbaa !32
  %65 = load i64, ptr %15, align 8, !tbaa !25
  %66 = add nsw i64 %65, 1
  %67 = getelementptr inbounds double, ptr %64, i64 %66
  %68 = load double, ptr %67, align 8, !tbaa !24
  %69 = fadd double %63, %68
  %70 = load ptr, ptr %16, align 8, !tbaa !32
  %71 = load i64, ptr %15, align 8, !tbaa !25
  %72 = load i64, ptr %11, align 8, !tbaa !25
  %73 = sub nsw i64 %71, %72
  %74 = getelementptr inbounds double, ptr %70, i64 %73
  %75 = load double, ptr %74, align 8, !tbaa !24
  %76 = fadd double %69, %75
  %77 = load ptr, ptr %16, align 8, !tbaa !32
  %78 = load i64, ptr %15, align 8, !tbaa !25
  %79 = load i64, ptr %11, align 8, !tbaa !25
  %80 = add nsw i64 %78, %79
  %81 = getelementptr inbounds double, ptr %77, i64 %80
  %82 = load double, ptr %81, align 8, !tbaa !24
  %83 = fadd double %76, %82
  %84 = load ptr, ptr %16, align 8, !tbaa !32
  %85 = load i64, ptr %15, align 8, !tbaa !25
  %86 = getelementptr inbounds double, ptr %84, i64 %85
  %87 = load double, ptr %86, align 8, !tbaa !24
  %88 = call double @llvm.fmuladd.f64(double -4.000000e+00, double %87, double %83)
  %89 = fneg double %58
  %90 = call double @llvm.fmuladd.f64(double %89, double %88, double %57)
  %91 = load ptr, ptr %18, align 8, !tbaa !32
  %92 = load i64, ptr %15, align 8, !tbaa !25
  %93 = getelementptr inbounds double, ptr %91, i64 %92
  store double %90, ptr %93, align 8, !tbaa !24
  br label %94

94:                                               ; preds = %50
  %95 = load i64, ptr %12, align 8, !tbaa !25
  %96 = add nsw i64 %95, 1
  store i64 %96, ptr %12, align 8, !tbaa !25
  br label %45

97:                                               ; preds = %45
  br label %98

98:                                               ; preds = %97
  %99 = load i64, ptr %13, align 8, !tbaa !25
  %100 = add nsw i64 %99, 1
  store i64 %100, ptr %13, align 8, !tbaa !25
  br label %36

101:                                              ; preds = %36
  call void @llvm.lifetime.end.p0(i64 8, ptr %20) #6
  call void @llvm.lifetime.end.p0(i64 8, ptr %19) #6
  call void @llvm.lifetime.end.p0(i64 8, ptr %18) #6
  call void @llvm.lifetime.end.p0(i64 8, ptr %17) #6
  call void @llvm.lifetime.end.p0(i64 8, ptr %16) #6
  call void @llvm.lifetime.end.p0(i64 8, ptr %15) #6
  call void @llvm.lifetime.end.p0(i64 8, ptr %14) #6
  call void @llvm.lifetime.end.p0(i64 8, ptr %13) #6
  call void @llvm.lifetime.end.p0(i64 8, ptr %12) #6
  call void @llvm.lifetime.end.p0(i64 8, ptr %11) #6
  ret i32 0
}