; Function Attrs: nounwind uwtable
define dso_local noundef i32 @heatres(double %0, ptr noundef %1, ptr noundef %2, ptr noundef %3, ptr noundef readonly captures(none) %4) #0 {
  %6 = tail call ptr @N_VGetArrayPointer(ptr noundef %1) #9
  %7 = tail call ptr @N_VGetArrayPointer(ptr noundef %2) #9
  %8 = tail call ptr @N_VGetArrayPointer(ptr noundef %3) #9
  %9 = load i64, ptr %4, align 8, !tbaa !11
  %10 = getelementptr inbounds nuw i8, ptr %4, i64 16
  %11 = load double, ptr %10, align 8, !tbaa !16
  tail call void @N_VScale(double noundef 1.000000e+00, ptr noundef %1, ptr noundef %3) #9
  %12 = add i64 %9, -1
  %13 = icmp sgt i64 %9, 2
  br i1 %13, label %.lr.ph39, label %._crit_edge40

.lr.ph39:                                         ; preds = %5
  %14 = fneg double %11
  br label %.lr.ph.us

.lr.ph.us:                                        ; preds = %._crit_edge.us, %.lr.ph39
  %.03437.us = phi i64 [ 1, %.lr.ph39 ], [ %38, %._crit_edge.us ]
  %15 = mul nuw nsw i64 %.03437.us, %9
  br label %16

16:                                               ; preds = %.lr.ph.us, %16
  %.036.us = phi i64 [ 1, %.lr.ph.us ], [ %37, %16 ]
  %17 = add nuw nsw i64 %.036.us, %15
  %18 = getelementptr inbounds nuw double, ptr %7, i64 %17
  %19 = load double, ptr %18, align 8, !tbaa !18
  %20 = getelementptr double, ptr %6, i64 %17
  %21 = getelementptr i8, ptr %20, i64 -8
  %22 = load double, ptr %21, align 8, !tbaa !18
  %23 = getelementptr i8, ptr %20, i64 8
  %24 = load double, ptr %23, align 8, !tbaa !18
  %25 = fadd double %22, %24
  %26 = sub nsw i64 %17, %9
  %27 = getelementptr inbounds double, ptr %6, i64 %26
  %28 = load double, ptr %27, align 8, !tbaa !18
  %29 = fadd double %25, %28
  %30 = getelementptr double, ptr %20, i64 %9
  %31 = load double, ptr %30, align 8, !tbaa !18
  %32 = fadd double %29, %31
  %33 = load double, ptr %20, align 8, !tbaa !18
  %34 = tail call double @llvm.fmuladd.f64(double %33, double -4.000000e+00, double %32)
  %35 = tail call double @llvm.fmuladd.f64(double %14, double %34, double %19)
  %36 = getelementptr inbounds nuw double, ptr %8, i64 %17
  store double %35, ptr %36, align 8, !tbaa !18
  %37 = add nuw nsw i64 %.036.us, 1
  %exitcond.not = icmp eq i64 %37, %12
  br i1 %exitcond.not, label %._crit_edge.us, label %16

._crit_edge.us:                                   ; preds = %16
  %38 = add nuw nsw i64 %.03437.us, 1
  %exitcond41.not = icmp eq i64 %38, %12
  br i1 %exitcond41.not, label %._crit_edge40, label %.lr.ph.us

._crit_edge40:                                    ; preds = %._crit_edge.us, %5
  ret i32 0
}